target datalayout = "e-m:e-p270:32:32-p271:32:32-p272:64:64-i64:64-i128:128-f80:128-n8:16:32:64-S128"
target triple = "x86_64-pc-linux-gnu"

%struct.exr_attr_box2i_t = type { %struct.exr_attr_v2i_t, %struct.exr_attr_v2i_t }
%struct.exr_attr_v2i_t = type { i32, i32 }
%struct._priv_exr_part_t = type { i32, i32, %struct.exr_attribute_list, ptr, ptr, ptr, ptr, ptr, ptr, ptr, ptr, ptr, ptr, ptr, ptr, ptr, ptr, %struct.exr_attr_box2i_t, %struct.exr_attr_box2i_t, i32, i32, i32, float, i32, i32, ptr, ptr, ptr, ptr, i64, i16, i16, i32, i64, i64 }
%struct.exr_attribute_list = type { i32, i32, ptr, ptr }
%struct._priv_exr_context_t = type { i8, i8, i8, i8, i8, i8, i8, i8, %struct.exr_attr_string_t, %struct.exr_attr_string_t, ptr, ptr, ptr, ptr, ptr, ptr, ptr, ptr, i32, i32, i32, i32, i32, float, ptr, ptr, ptr, i64, ptr, ptr, i64, i32, i32, i32, i32, %struct._priv_exr_part_t, ptr, ptr, %struct.exr_attribute_list, %union.pthread_mutex_t, i8, i8, [2 x i8], i32 }
%struct.exr_attr_string_t = type { i32, i32, ptr }
%union.pthread_mutex_t = type { %struct.__pthread_mutex_s }
%struct.__pthread_mutex_s = type { i32, i32, i32, i32, i32, i16, i16, %struct.__pthread_internal_list }
%struct.__pthread_internal_list = type { ptr, ptr }
%struct._internal_exr_seq_scratch = type { ptr, i64, i64, i64, ptr, ptr, ptr }
%struct.exr_attr_float_vector_t = type { i32, i32, ptr }

@.str.84 = private unnamed_addr constant [52 x i8] c"Attribute '%s', type '%s': Invalid negative size %d\00", align 1
@.str.85 = private unnamed_addr constant [43 x i8] c"Attribute '%s', type '%s': Invalid size %d\00", align 1
@.str.86 = private unnamed_addr constant [74 x i8] c"Attribute '%s': Invalid size %d (exp '%s' size 4 * n, found odd bytes %d)\00", align 1
@.str.88 = private unnamed_addr constant [28 x i8] c"Unable to read '%s' %s data\00", align 1

; Function Attrs: inlinehint nounwind uwtable
define internal i32 @scratch_attr_too_big(ptr noundef %0, i32 noundef %1) #4 {
  %3 = alloca i32, align 4
  %4 = alloca ptr, align 8
  %5 = alloca i32, align 4
  %6 = alloca i64, align 8
  %7 = alloca i64, align 8
  %8 = alloca i64, align 8
  %9 = alloca i32, align 4
  store ptr %0, ptr %4, align 8, !tbaa !95
  store i32 %1, ptr %5, align 4, !tbaa !10
  call void @llvm.lifetime.start.p0(i64 8, ptr %6) #7
  %10 = load i32, ptr %5, align 4, !tbaa !10
  %11 = sext i32 %10 to i64
  store i64 %11, ptr %6, align 8, !tbaa !38
  %12 = load ptr, ptr %4, align 8, !tbaa !95
  %13 = getelementptr inbounds nuw %struct._internal_exr_seq_scratch, ptr %12, i32 0, i32 6
  %14 = load ptr, ptr %13, align 8, !tbaa !101
  %15 = getelementptr inbounds nuw %struct._priv_exr_context_t, ptr %14, i32 0, i32 27
  %16 = load i64, ptr %15, align 8, !tbaa !107
  %17 = icmp sgt i64 %16, 0
  br i1 %17, label %18, label %47

18:                                               ; preds = %2
  %19 = load i64, ptr %6, align 8, !tbaa !38
  %20 = load ptr, ptr %4, align 8, !tbaa !95
  %21 = getelementptr inbounds nuw %struct._internal_exr_seq_scratch, ptr %20, i32 0, i32 2
  %22 = load i64, ptr %21, align 8, !tbaa !98
  %23 = icmp sgt i64 %19, %22
  br i1 %23, label %24, label %47

24:                                               ; preds = %18
  call void @llvm.lifetime.start.p0(i64 8, ptr %7) #7
  %25 = load i64, ptr %6, align 8, !tbaa !38
  %26 = load ptr, ptr %4, align 8, !tbaa !95
  %27 = getelementptr inbounds nuw %struct._internal_exr_seq_scratch, ptr %26, i32 0, i32 2
  %28 = load i64, ptr %27, align 8, !tbaa !98
  %29 = sub nsw i64 %25, %28
  store i64 %29, ptr %7, align 8, !tbaa !38
  call void @llvm.lifetime.start.p0(i64 8, ptr %8) #7
  %30 = load ptr, ptr %4, align 8, !tbaa !95
  %31 = getelementptr inbounds nuw %struct._internal_exr_seq_scratch, ptr %30, i32 0, i32 3
  %32 = load i64, ptr %31, align 8, !tbaa !99
  store i64 %32, ptr %8, align 8, !tbaa !38
  %33 = load i64, ptr %8, align 8, !tbaa !38
  %34 = load i64, ptr %7, align 8, !tbaa !38
  %35 = add nsw i64 %33, %34
  %36 = load ptr, ptr %4, align 8, !tbaa !95
  %37 = getelementptr inbounds nuw %struct._internal_exr_seq_scratch, ptr %36, i32 0, i32 6
  %38 = load ptr, ptr %37, align 8, !tbaa !101
  %39 = getelementptr inbounds nuw %struct._priv_exr_context_t, ptr %38, i32 0, i32 27
  %40 = load i64, ptr %39, align 8, !tbaa !107
  %41 = icmp sgt i64 %35, %40
  br i1 %41, label %42, label %43

42:                                               ; preds = %24
  store i32 1, ptr %3, align 4
  store i32 1, ptr %9, align 4
  br label %44

43:                                               ; preds = %24
  store i32 0, ptr %9, align 4
  br label %44

44:                                               ; preds = %43, %42
  call void @llvm.lifetime.end.p0(i64 8, ptr %8) #7
  call void @llvm.lifetime.end.p0(i64 8, ptr %7) #7
  %45 = load i32, ptr %9, align 4
  switch i32 %45, label %59 [
    i32 0, label %46
  ]

46:                                               ; preds = %44
  br label %58

47:                                               ; preds = %18, %2
  %48 = load i64, ptr %6, align 8, !tbaa !38
  %49 = load ptr, ptr %4, align 8, !tbaa !95
  %50 = getelementptr inbounds nuw %struct._internal_exr_seq_scratch, ptr %49, i32 0, i32 2
  %51 = load i64, ptr %50, align 8, !tbaa !98
  %52 = icmp sgt i64 %48, %51
  br i1 %52, label %53, label %57

53:                                               ; preds = %47
  %54 = load i64, ptr %6, align 8, !tbaa !38
  %55 = icmp sge i64 %54, 2147483647
  br i1 %55, label %56, label %57

56:                                               ; preds = %53
  store i32 1, ptr %3, align 4
  store i32 1, ptr %9, align 4
  br label %59

57:                                               ; preds = %53, %47
  br label %58

58:                                               ; preds = %57, %46
  store i32 0, ptr %3, align 4
  store i32 1, ptr %9, align 4
  br label %59

59:                                               ; preds = %58, %56, %44
  call void @llvm.lifetime.end.p0(i64 8, ptr %6) #7
  %60 = load i32, ptr %3, align 4
  ret i32 %60
}

; Function Attrs: inlinehint nounwind uwtable
define internal void @priv_to_native32(ptr noundef %0, i32 noundef %1) #4 {
  %3 = alloca ptr, align 8
  %4 = alloca i32, align 4
  store ptr %0, ptr %3, align 8, !tbaa !34
  store i32 %1, ptr %4, align 4, !tbaa !10
  ret void
}

; Function Attrs: nounwind uwtable
define internal i32 @check_bad_attrsz(ptr noundef %0, i32 noundef %1, i32 noundef %2, ptr noundef %3, ptr noundef %4, ptr noundef %5) #0 {
  %7 = alloca i32, align 4
  %8 = alloca ptr, align 8
  %9 = alloca i32, align 4
  %10 = alloca i32, align 4
  %11 = alloca ptr, align 8
  %12 = alloca ptr, align 8
  %13 = alloca ptr, align 8
  %14 = alloca i32, align 4
  %15 = alloca i32, align 4
  store ptr %0, ptr %8, align 8, !tbaa !95
  store i32 %1, ptr %9, align 4, !tbaa !10
  store i32 %2, ptr %10, align 4, !tbaa !10
  store ptr %3, ptr %11, align 8, !tbaa !93
  store ptr %4, ptr %12, align 8, !tbaa !93
  store ptr %5, ptr %13, align 8, !tbaa !35
  call void @llvm.lifetime.start.p0(i64 4, ptr %14) #7
  %16 = load i32, ptr %9, align 4, !tbaa !10
  store i32 %16, ptr %14, align 4, !tbaa !10
  %17 = load i32, ptr %14, align 4, !tbaa !10
  %18 = load ptr, ptr %13, align 8, !tbaa !35
  store i32 %17, ptr %18, align 4, !tbaa !10
  %19 = load i32, ptr %9, align 4, !tbaa !10
  %20 = icmp slt i32 %19, 0
  br i1 %20, label %21, label %34

21:                                               ; preds = %6
  %22 = load ptr, ptr %8, align 8, !tbaa !95
  %23 = getelementptr inbounds nuw %struct._internal_exr_seq_scratch, ptr %22, i32 0, i32 6
  %24 = load ptr, ptr %23, align 8, !tbaa !101
  %25 = getelementptr inbounds nuw %struct._priv_exr_context_t, ptr %24, i32 0, i32 14
  %26 = load ptr, ptr %25, align 8, !tbaa !48
  %27 = load ptr, ptr %8, align 8, !tbaa !95
  %28 = getelementptr inbounds nuw %struct._internal_exr_seq_scratch, ptr %27, i32 0, i32 6
  %29 = load ptr, ptr %28, align 8, !tbaa !101
  %30 = load ptr, ptr %11, align 8, !tbaa !93
  %31 = load ptr, ptr %12, align 8, !tbaa !93
  %32 = load i32, ptr %9, align 4, !tbaa !10
  %33 = call i32 (ptr, i32, ptr, ...) %26(ptr noundef %29, i32 noundef 17, ptr noundef @.str.84, ptr noundef %30, ptr noundef %31, i32 noundef %32)
  store i32 %33, ptr %7, align 4
  store i32 1, ptr %15, align 4
  br label %84

34:                                               ; preds = %6
  %35 = load ptr, ptr %8, align 8, !tbaa !95
  %36 = load i32, ptr %9, align 4, !tbaa !10
  %37 = call i32 @scratch_attr_too_big(ptr noundef %35, i32 noundef %36)
  %38 = icmp ne i32 %37, 0
  br i1 %38, label %39, label %52

39:                                               ; preds = %34
  %40 = load ptr, ptr %8, align 8, !tbaa !95
  %41 = getelementptr inbounds nuw %struct._internal_exr_seq_scratch, ptr %40, i32 0, i32 6
  %42 = load ptr, ptr %41, align 8, !tbaa !101
  %43 = getelementptr inbounds nuw %struct._priv_exr_context_t, ptr %42, i32 0, i32 14
  %44 = load ptr, ptr %43, align 8, !tbaa !48
  %45 = load ptr, ptr %8, align 8, !tbaa !95
  %46 = getelementptr inbounds nuw %struct._internal_exr_seq_scratch, ptr %45, i32 0, i32 6
  %47 = load ptr, ptr %46, align 8, !tbaa !101
  %48 = load ptr, ptr %11, align 8, !tbaa !93
  %49 = load ptr, ptr %12, align 8, !tbaa !93
  %50 = load i32, ptr %9, align 4, !tbaa !10
  %51 = call i32 (ptr, i32, ptr, ...) %44(ptr noundef %47, i32 noundef 17, ptr noundef @.str.85, ptr noundef %48, ptr noundef %49, i32 noundef %50)
  store i32 %51, ptr %7, align 4
  store i32 1, ptr %15, align 4
  br label %84

52:                                               ; preds = %34
  %53 = load i32, ptr %10, align 4, !tbaa !10
  %54 = icmp sgt i32 %53, 1
  br i1 %54, label %55, label %83

55:                                               ; preds = %52
  %56 = load i32, ptr %9, align 4, !tbaa !10
  %57 = load i32, ptr %10, align 4, !tbaa !10
  %58 = sdiv i32 %56, %57
  store i32 %58, ptr %14, align 4, !tbaa !10
  %59 = load i32, ptr %9, align 4, !tbaa !10
  %60 = load i32, ptr %14, align 4, !tbaa !10
  %61 = load i32, ptr %10, align 4, !tbaa !10
  %62 = mul nsw i32 %60, %61
  %63 = icmp ne i32 %59, %62
  br i1 %63, label %64, label %80

64:                                               ; preds = %55
  %65 = load ptr, ptr %8, align 8, !tbaa !95
  %66 = getelementptr inbounds nuw %struct._internal_exr_seq_scratch, ptr %65, i32 0, i32 6
  %67 = load ptr, ptr %66, align 8, !tbaa !101
  %68 = getelementptr inbounds nuw %struct._priv_exr_context_t, ptr %67, i32 0, i32 14
  %69 = load ptr, ptr %68, align 8, !tbaa !48
  %70 = load ptr, ptr %8, align 8, !tbaa !95
  %71 = getelementptr inbounds nuw %struct._internal_exr_seq_scratch, ptr %70, i32 0, i32 6
  %72 = load ptr, ptr %71, align 8, !tbaa !101
  %73 = load ptr, ptr %11, align 8, !tbaa !93
  %74 = load i32, ptr %9, align 4, !tbaa !10
  %75 = load ptr, ptr %12, align 8, !tbaa !93
  %76 = load i32, ptr %9, align 4, !tbaa !10
  %77 = load i32, ptr %10, align 4, !tbaa !10
  %78 = srem i32 %76, %77
  %79 = call i32 (ptr, i32, ptr, ...) %69(ptr noundef %72, i32 noundef 17, ptr noundef @.str.86, ptr noundef %73, i32 noundef %74, ptr noundef %75, i32 noundef %78)
  store i32 %79, ptr %7, align 4
  store i32 1, ptr %15, align 4
  br label %84

80:                                               ; preds = %55
  %81 = load i32, ptr %14, align 4, !tbaa !10
  %82 = load ptr, ptr %13, align 8, !tbaa !35
  store i32 %81, ptr %82, align 4, !tbaa !10
  br label %83

83:                                               ; preds = %80, %52
  store i32 0, ptr %7, align 4
  store i32 1, ptr %15, align 4
  br label %84

84:                                               ; preds = %83, %64, %39, %21
  call void @llvm.lifetime.end.p0(i64 4, ptr %14) #7
  %85 = load i32, ptr %7, align 4
  ret i32 %85
}

; Function Attrs: nounwind uwtable
define internal i32 @extract_attr_float_vector(ptr noundef %0, ptr noundef %1, ptr noundef %2, ptr noundef %3, ptr noundef %4, i32 noundef %5) #0 {
  %7 = alloca i32, align 4
  %8 = alloca ptr, align 8
  %9 = alloca ptr, align 8
  %10 = alloca ptr, align 8
  %11 = alloca ptr, align 8
  %12 = alloca ptr, align 8
  %13 = alloca i32, align 4
  %14 = alloca i32, align 4
  %15 = alloca i32, align 4
  %16 = alloca i32, align 4
  store ptr %0, ptr %8, align 8, !tbaa !3
  store ptr %1, ptr %9, align 8, !tbaa !95
  store ptr %2, ptr %10, align 8, !tbaa !34
  store ptr %3, ptr %11, align 8, !tbaa !93
  store ptr %4, ptr %12, align 8, !tbaa !93
  store i32 %5, ptr %13, align 4, !tbaa !10
  call void @llvm.lifetime.start.p0(i64 4, ptr %14) #7
  store i32 0, ptr %14, align 4, !tbaa !10
  call void @llvm.lifetime.start.p0(i64 4, ptr %15) #7
  %17 = load ptr, ptr %9, align 8, !tbaa !95
  %18 = load i32, ptr %13, align 4, !tbaa !10
  %19 = load ptr, ptr %11, align 8, !tbaa !93
  %20 = load ptr, ptr %12, align 8, !tbaa !93
  %21 = call i32 @check_bad_attrsz(ptr noundef %17, i32 noundef %18, i32 noundef 4, ptr noundef %19, ptr noundef %20, ptr noundef %14)
  store i32 %21, ptr %15, align 4, !tbaa !10
  %22 = load ptr, ptr %8, align 8, !tbaa !3
  %23 = load ptr, ptr %10, align 8, !tbaa !34
  %24 = call i32 @exr_attr_float_vector_destroy(ptr noundef %22, ptr noundef %23)
  %25 = load i32, ptr %15, align 4, !tbaa !10
  %26 = icmp eq i32 %25, 0
  br i1 %26, label %27, label %68

27:                                               ; preds = %6
  %28 = load i32, ptr %14, align 4, !tbaa !10
  %29 = icmp sgt i32 %28, 0
  br i1 %29, label %30, label %68

30:                                               ; preds = %27
  %31 = load ptr, ptr %8, align 8, !tbaa !3
  %32 = load ptr, ptr %10, align 8, !tbaa !34
  %33 = load i32, ptr %14, align 4, !tbaa !10
  %34 = call i32 @exr_attr_float_vector_init(ptr noundef %31, ptr noundef %32, i32 noundef %33)
  store i32 %34, ptr %15, align 4, !tbaa !10
  %35 = load i32, ptr %15, align 4, !tbaa !10
  %36 = icmp ne i32 %35, 0
  br i1 %36, label %37, label %39

37:                                               ; preds = %30
  %38 = load i32, ptr %15, align 4, !tbaa !10
  store i32 %38, ptr %7, align 4
  store i32 1, ptr %16, align 4
  br label %70

39:                                               ; preds = %30
  %40 = load ptr, ptr %9, align 8, !tbaa !95
  %41 = getelementptr inbounds nuw %struct._internal_exr_seq_scratch, ptr %40, i32 0, i32 4
  %42 = load ptr, ptr %41, align 8, !tbaa !88
  %43 = load ptr, ptr %9, align 8, !tbaa !95
  %44 = load ptr, ptr %10, align 8, !tbaa !34
  %45 = getelementptr inbounds nuw %struct.exr_attr_float_vector_t, ptr %44, i32 0, i32 2
  %46 = load ptr, ptr %45, align 8, !tbaa !112
  %47 = ptrtoint ptr %46 to i64
  %48 = inttoptr i64 %47 to ptr
  %49 = load i32, ptr %13, align 4, !tbaa !10
  %50 = sext i32 %49 to i64
  %51 = call i32 %42(ptr noundef %43, ptr noundef %48, i64 noundef %50)
  store i32 %51, ptr %15, align 4, !tbaa !10
  %52 = load i32, ptr %15, align 4, !tbaa !10
  %53 = icmp ne i32 %52, 0
  br i1 %53, label %54, label %65

54:                                               ; preds = %39
  %55 = load ptr, ptr %8, align 8, !tbaa !3
  %56 = load ptr, ptr %10, align 8, !tbaa !34
  %57 = call i32 @exr_attr_float_vector_destroy(ptr noundef %55, ptr noundef %56)
  %58 = load ptr, ptr %8, align 8, !tbaa !3
  %59 = getelementptr inbounds nuw %struct._priv_exr_context_t, ptr %58, i32 0, i32 14
  %60 = load ptr, ptr %59, align 8, !tbaa !48
  %61 = load ptr, ptr %8, align 8, !tbaa !3
  %62 = load ptr, ptr %11, align 8, !tbaa !93
  %63 = load ptr, ptr %12, align 8, !tbaa !93
  %64 = call i32 (ptr, i32, ptr, ...) %60(ptr noundef %61, i32 noundef 10, ptr noundef @.str.88, ptr noundef %62, ptr noundef %63)
  store i32 %64, ptr %7, align 4
  store i32 1, ptr %16, align 4
  br label %70

65:                                               ; preds = %39
  %66 = load ptr, ptr %10, align 8, !tbaa !34
  %67 = load i32, ptr %14, align 4, !tbaa !10
  call void @priv_to_native32(ptr noundef %66, i32 noundef %67)
  br label %68

68:                                               ; preds = %65, %27, %6
  %69 = load i32, ptr %15, align 4, !tbaa !10
  store i32 %69, ptr %7, align 4
  store i32 1, ptr %16, align 4
  br label %70

70:                                               ; preds = %68, %54, %37
  call void @llvm.lifetime.end.p0(i64 4, ptr %15) #7
  call void @llvm.lifetime.end.p0(i64 4, ptr %14) #7
  %71 = load i32, ptr %7, align 4
  ret i32 %71
}