; Function Attrs: nounwind uwtable
define internal fastcc i32 @extract_attr_float_vector(ptr noundef %0, ptr noundef nonnull %1, ptr noundef %2, ptr noundef nonnull %3, ptr noundef nonnull %4, i32 noundef %5) unnamed_addr #0 {
  %7 = icmp slt i32 %5, 0
  br i1 %7, label %8, label %14

8:                                                ; preds = %6
  %9 = getelementptr inbounds nuw i8, ptr %1, i64 48
  %10 = load ptr, ptr %9, align 8, !tbaa !75
  %11 = getelementptr inbounds nuw i8, ptr %10, i64 72
  %12 = load ptr, ptr %11, align 8, !tbaa !40
  %13 = tail call i32 (ptr, i32, ptr, ...) %12(ptr noundef %10, i32 noundef 17, ptr noundef nonnull @.str.84, ptr noundef nonnull %3, ptr noundef nonnull %4, i32 noundef %5) #9
  br label %check_bad_attrsz.exit

14:                                               ; preds = %6
  %15 = zext nneg i32 %5 to i64
  %16 = getelementptr inbounds nuw i8, ptr %1, i64 48
  %17 = load ptr, ptr %16, align 8, !tbaa !75
  %18 = getelementptr inbounds nuw i8, ptr %17, i64 152
  %19 = load i64, ptr %18, align 8, !tbaa !93
  %20 = icmp sgt i64 %19, 0
  %21 = getelementptr inbounds nuw i8, ptr %1, i64 16
  %22 = load i64, ptr %21, align 8, !tbaa !94
  %23 = icmp slt i64 %22, %15
  %or.cond19.i.i = select i1 %20, i1 %23, i1 false
  br i1 %or.cond19.i.i, label %24, label %._crit_edge.i.i

24:                                               ; preds = %14
  %25 = sub i64 %15, %22
  %26 = getelementptr inbounds nuw i8, ptr %1, i64 24
  %27 = load i64, ptr %26, align 8, !tbaa !70
  %28 = add nsw i64 %25, %27
  %.not.i.i = icmp sgt i64 %28, %19
  br i1 %.not.i.i, label %30, label %scratch_attr_too_big.exit.i

._crit_edge.i.i:                                  ; preds = %14
  %29 = icmp eq i32 %5, 2147483647
  %or.cond.i.i = and i1 %29, %23
  br i1 %or.cond.i.i, label %30, label %scratch_attr_too_big.exit.i

30:                                               ; preds = %._crit_edge.i.i, %24
  %31 = getelementptr inbounds nuw i8, ptr %17, i64 72
  %32 = load ptr, ptr %31, align 8, !tbaa !40
  %33 = tail call i32 (ptr, i32, ptr, ...) %32(ptr noundef nonnull %17, i32 noundef 17, ptr noundef nonnull @.str.85, ptr noundef nonnull %3, ptr noundef nonnull %4, i32 noundef %5) #9
  br label %check_bad_attrsz.exit

scratch_attr_too_big.exit.i:                      ; preds = %._crit_edge.i.i, %24
  %34 = lshr i32 %5, 2
  %35 = and i32 %5, 3
  %.not33.i = icmp eq i32 %35, 0
  br i1 %.not33.i, label %check_bad_attrsz.exit, label %36

36:                                               ; preds = %scratch_attr_too_big.exit.i
  %37 = getelementptr inbounds nuw i8, ptr %17, i64 72
  %38 = load ptr, ptr %37, align 8, !tbaa !40
  %39 = tail call i32 (ptr, i32, ptr, ...) %38(ptr noundef nonnull %17, i32 noundef 17, ptr noundef nonnull @.str.86, ptr noundef nonnull %3, i32 noundef %5, ptr noundef nonnull %4, i32 noundef %35) #9
  br label %check_bad_attrsz.exit

check_bad_attrsz.exit:                            ; preds = %scratch_attr_too_big.exit.i, %8, %30, %36
  %.0 = phi i32 [ %5, %8 ], [ %5, %30 ], [ %5, %36 ], [ %34, %scratch_attr_too_big.exit.i ]
  %.0.i = phi i32 [ %13, %8 ], [ %33, %30 ], [ %39, %36 ], [ 0, %scratch_attr_too_big.exit.i ]
  %40 = tail call i32 @exr_attr_float_vector_destroy(ptr noundef %0, ptr noundef %2) #9
  %41 = icmp eq i32 %.0.i, 0
  %42 = icmp sgt i32 %.0, 0
  %or.cond = and i1 %42, %41
  br i1 %or.cond, label %43, label %57

43:                                               ; preds = %check_bad_attrsz.exit
  %44 = tail call i32 @exr_attr_float_vector_init(ptr noundef %0, ptr noundef %2, i32 noundef %.0) #9
  %.not = icmp eq i32 %44, 0
  br i1 %.not, label %45, label %57

45:                                               ; preds = %43
  %46 = getelementptr inbounds nuw i8, ptr %1, i64 32
  %47 = load ptr, ptr %46, align 8, !tbaa !73
  %48 = getelementptr inbounds nuw i8, ptr %2, i64 8
  %49 = load ptr, ptr %48, align 8, !tbaa !113
  %50 = sext i32 %5 to i64
  %51 = tail call i32 %47(ptr noundef nonnull %1, ptr noundef %49, i64 noundef %50) #9
  %.not29 = icmp eq i32 %51, 0
  br i1 %.not29, label %57, label %52

52:                                               ; preds = %45
  %53 = tail call i32 @exr_attr_float_vector_destroy(ptr noundef %0, ptr noundef nonnull %2) #9
  %54 = getelementptr inbounds nuw i8, ptr %0, i64 72
  %55 = load ptr, ptr %54, align 8, !tbaa !40
  %56 = tail call i32 (ptr, i32, ptr, ...) %55(ptr noundef %0, i32 noundef 10, ptr noundef nonnull @.str.88, ptr noundef nonnull %3, ptr noundef nonnull %4) #9
  br label %57

57:                                               ; preds = %45, %check_bad_attrsz.exit, %43, %52
  %.025 = phi i32 [ %56, %52 ], [ %44, %43 ], [ %.0.i, %check_bad_attrsz.exit ], [ 0, %45 ]
  ret i32 %.025
}